target datalayout = "e-m:e-p270:32:32-p271:32:32-p272:64:64-i64:64-i128:128-f80:128-n8:16:32:64-S128"
target triple = "x86_64-pc-linux-gnu"

%struct.expert_field = type { i32, i32 }

@hf_application_parameter = internal global i32 0, align 4
@hf_application_parameter_length = internal global i32 0, align 4
@hf_application_parameter_data = internal global i32 0, align 4
@hf_pbap_application_parameter_id = internal global i32 0, align 4
@hf_pbap_application_parameter_data_order = internal global i32 0, align 4
@hf_pbap_application_parameter_data_search_value = internal global i32 0, align 4
@hf_pbap_application_parameter_data_search_attribute = internal global i32 0, align 4
@hf_pbap_application_parameter_data_max_list_count = internal global i32 0, align 4
@hf_pbap_application_parameter_data_list_start_offset = internal global i32 0, align 4
@hf_pbap_application_parameter_data_filter = internal global i32 0, align 4
@hf_pbap_application_parameter_vcard_selector = internal global i32 0, align 4
@hf_pbap_application_parameter_data_format = internal global i32 0, align 4
@hf_pbap_application_parameter_data_phonebook_size = internal global i32 0, align 4
@hf_pbap_application_parameter_data_new_missed_calls = internal global i32 0, align 4
@hf_pbap_application_parameter_data_primary_version_counter = internal global i32 0, align 4
@hf_pbap_application_parameter_data_secondary_version_counter = internal global i32 0, align 4
@hf_pbap_application_parameter_data_database_identifier = internal global i32 0, align 4
@hf_pbap_application_parameter_data_vcard_selector_operator = internal global i32 0, align 4
@hf_pbap_application_parameter_data_reset_new_missed_calls = internal global i32 0, align 4
@hf_pbap_application_parameter_data_supported_features = internal global i32 0, align 4
@ett_obex_filter = internal global i32 0, align 4
@ett_obex_parameter = internal global i32 0, align 4
@ett_obex_application_parameters = internal global i32 0, align 4
@ei_application_parameter_length_bad = internal global %struct.expert_field zeroinitializer, align 4
@.str.702 = private unnamed_addr constant [8 x i8] c"Unknown\00", align 1
@.str.776 = private unnamed_addr constant [14 x i8] c"Parameter: %s\00", align 1
@.str.778 = private unnamed_addr constant [83 x i8] c"According to the specification this parameter length should be %i, but there is %i\00", align 1
@dissect_obex_application_parameter_bt_pbap.required_length_map = internal global [16 x i32] [i32 0, i32 1, i32 -1, i32 1, i32 2, i32 2, i32 8, i32 1, i32 2, i32 1, i32 16, i32 16, i32 8, i32 16, i32 1, i32 1], align 16

; Function Attrs: null_pointer_is_valid sspstrong uwtable
define internal i32 @dissect_obex_application_parameter_bt_pbap(ptr noundef %0, ptr noundef %1, ptr noundef %2, ptr noundef %3) #0 {
  %5 = alloca ptr, align 8
  %6 = alloca ptr, align 8
  %7 = alloca ptr, align 8
  %8 = alloca ptr, align 8
  %9 = alloca ptr, align 8
  %10 = alloca ptr, align 8
  %11 = alloca ptr, align 8
  %12 = alloca i8, align 1
  %13 = alloca i32, align 4
  %14 = alloca i32, align 4
  %15 = alloca i32, align 4
  store ptr %0, ptr %5, align 8
  store ptr %1, ptr %6, align 8
  store ptr %2, ptr %7, align 8
  store ptr %3, ptr %8, align 8
  call void @llvm.lifetime.start.p0(i64 8, ptr %9) #7
  call void @llvm.lifetime.start.p0(i64 8, ptr %10) #7
  call void @llvm.lifetime.start.p0(i64 8, ptr %11) #7
  call void @llvm.lifetime.start.p0(i64 1, ptr %12) #7
  call void @llvm.lifetime.start.p0(i64 4, ptr %13) #7
  store i32 0, ptr %13, align 4
  call void @llvm.lifetime.start.p0(i64 4, ptr %14) #7
  call void @llvm.lifetime.start.p0(i64 4, ptr %15) #7
  %16 = load ptr, ptr %5, align 8
  %17 = call i32 @tvb_reported_length(ptr noundef %16)
  store i32 %17, ptr %14, align 4
  br label %18

18:                                               ; preds = %215, %4
  %19 = load i32, ptr %14, align 4
  %20 = icmp sgt i32 %19, 0
  br i1 %20, label %21, label %223

21:                                               ; preds = %18
  %22 = load ptr, ptr %5, align 8
  %23 = load i32, ptr %13, align 4
  %24 = call zeroext i8 @tvb_get_uint8(ptr noundef %22, i32 noundef %23)
  store i8 %24, ptr %12, align 1
  %25 = load ptr, ptr %5, align 8
  %26 = load i32, ptr %13, align 4
  %27 = add i32 %26, 1
  %28 = call zeroext i8 @tvb_get_uint8(ptr noundef %25, i32 noundef %27)
  %29 = zext i8 %28 to i32
  store i32 %29, ptr %15, align 4
  %30 = load ptr, ptr %7, align 8
  %31 = load i32, ptr @hf_application_parameter, align 4
  %32 = load ptr, ptr %5, align 8
  %33 = load i32, ptr %13, align 4
  %34 = load i32, ptr %15, align 4
  %35 = add i32 %34, 2
  %36 = load i8, ptr %12, align 1
  %37 = zext i8 %36 to i32
  %38 = call ptr @val_to_str_const(i32 noundef %37, ptr noundef @pbap_application_parameters_vals, ptr noundef @.str.702)
  %39 = call ptr (ptr, i32, ptr, i32, i32, ptr, ...) @proto_tree_add_none_format(ptr noundef %30, i32 noundef %31, ptr noundef %32, i32 noundef %33, i32 noundef %35, ptr noundef @.str.776, ptr noundef %38)
  store ptr %39, ptr %10, align 8
  %40 = load ptr, ptr %10, align 8
  %41 = load i32, ptr @ett_obex_application_parameters, align 4
  %42 = call ptr @proto_item_add_subtree(ptr noundef %40, i32 noundef %41)
  store ptr %42, ptr %11, align 8
  %43 = load ptr, ptr %11, align 8
  %44 = load i32, ptr @hf_pbap_application_parameter_id, align 4
  %45 = load ptr, ptr %5, align 8
  %46 = load i32, ptr %13, align 4
  %47 = call ptr @proto_tree_add_item(ptr noundef %43, i32 noundef %44, ptr noundef %45, i32 noundef %46, i32 noundef 1, i32 noundef 0)
  %48 = load i32, ptr %13, align 4
  %49 = add i32 %48, 1
  store i32 %49, ptr %13, align 4
  %50 = load ptr, ptr %11, align 8
  %51 = load i32, ptr @hf_application_parameter_length, align 4
  %52 = load ptr, ptr %5, align 8
  %53 = load i32, ptr %13, align 4
  %54 = call ptr @proto_tree_add_item(ptr noundef %50, i32 noundef %51, ptr noundef %52, i32 noundef %53, i32 noundef 1, i32 noundef 0)
  store ptr %54, ptr %9, align 8
  %55 = load i32, ptr %13, align 4
  %56 = add i32 %55, 1
  store i32 %56, ptr %13, align 4
  %57 = load i8, ptr %12, align 1
  %58 = zext i8 %57 to i64
  %59 = icmp ult i64 %58, 16
  br i1 %59, label %60, label %88

60:                                               ; preds = %21
  %61 = load i8, ptr %12, align 1
  %62 = zext i8 %61 to i64
  %63 = getelementptr [16 x i32], ptr @dissect_obex_application_parameter_bt_pbap.required_length_map, i64 0, i64 %62
  %64 = load i32, ptr %63, align 4
  %65 = icmp ne i32 %64, -1
  br i1 %65, label %66, label %88

66:                                               ; preds = %60
  %67 = load i8, ptr %12, align 1
  %68 = zext i8 %67 to i64
  %69 = getelementptr [16 x i32], ptr @dissect_obex_application_parameter_bt_pbap.required_length_map, i64 0, i64 %68
  %70 = load i32, ptr %69, align 4
  %71 = load i32, ptr %15, align 4
  %72 = icmp ne i32 %70, %71
  br i1 %72, label %73, label %88

73:                                               ; preds = %66
  %74 = load ptr, ptr %11, align 8
  %75 = load i32, ptr @hf_application_parameter_data, align 4
  %76 = load ptr, ptr %5, align 8
  %77 = load i32, ptr %13, align 4
  %78 = load i32, ptr %15, align 4
  %79 = call ptr @proto_tree_add_item(ptr noundef %74, i32 noundef %75, ptr noundef %76, i32 noundef %77, i32 noundef %78, i32 noundef 0)
  %80 = load ptr, ptr %6, align 8
  %81 = load ptr, ptr %9, align 8
  %82 = load i8, ptr %12, align 1
  %83 = zext i8 %82 to i64
  %84 = getelementptr [16 x i32], ptr @dissect_obex_application_parameter_bt_pbap.required_length_map, i64 0, i64 %83
  %85 = load i32, ptr %84, align 4
  %86 = load i32, ptr %15, align 4
  %87 = call ptr (ptr, ptr, ptr, ptr, ...) @expert_add_info_format(ptr noundef %80, ptr noundef %81, ptr noundef @ei_application_parameter_length_bad, ptr noundef @.str.778, i32 noundef %85, i32 noundef %86)
  br label %215

88:                                               ; preds = %66, %60, %21
  %89 = load i8, ptr %12, align 1
  %90 = zext i8 %89 to i32
  switch i32 %90, label %207 [
    i32 1, label %91
    i32 2, label %97
    i32 3, label %104
    i32 4, label %110
    i32 5, label %116
    i32 6, label %122
    i32 7, label %137
    i32 8, label %143
    i32 9, label %149
    i32 10, label %155
    i32 11, label %161
    i32 12, label %167
    i32 13, label %182
    i32 14, label %188
    i32 15, label %194
    i32 16, label %200
  ]

91:                                               ; preds = %88
  %92 = load ptr, ptr %11, align 8
  %93 = load i32, ptr @hf_pbap_application_parameter_data_order, align 4
  %94 = load ptr, ptr %5, align 8
  %95 = load i32, ptr %13, align 4
  %96 = call ptr @proto_tree_add_item(ptr noundef %92, i32 noundef %93, ptr noundef %94, i32 noundef %95, i32 noundef 1, i32 noundef 0)
  br label %214

97:                                               ; preds = %88
  %98 = load ptr, ptr %11, align 8
  %99 = load i32, ptr @hf_pbap_application_parameter_data_search_value, align 4
  %100 = load ptr, ptr %5, align 8
  %101 = load i32, ptr %13, align 4
  %102 = load i32, ptr %15, align 4
  %103 = call ptr @proto_tree_add_item(ptr noundef %98, i32 noundef %99, ptr noundef %100, i32 noundef %101, i32 noundef %102, i32 noundef 0)
  br label %214

104:                                              ; preds = %88
  %105 = load ptr, ptr %11, align 8
  %106 = load i32, ptr @hf_pbap_application_parameter_data_search_attribute, align 4
  %107 = load ptr, ptr %5, align 8
  %108 = load i32, ptr %13, align 4
  %109 = call ptr @proto_tree_add_item(ptr noundef %105, i32 noundef %106, ptr noundef %107, i32 noundef %108, i32 noundef 1, i32 noundef 0)
  br label %214

110:                                              ; preds = %88
  %111 = load ptr, ptr %11, align 8
  %112 = load i32, ptr @hf_pbap_application_parameter_data_max_list_count, align 4
  %113 = load ptr, ptr %5, align 8
  %114 = load i32, ptr %13, align 4
  %115 = call ptr @proto_tree_add_item(ptr noundef %111, i32 noundef %112, ptr noundef %113, i32 noundef %114, i32 noundef 2, i32 noundef 0)
  br label %214

116:                                              ; preds = %88
  %117 = load ptr, ptr %11, align 8
  %118 = load i32, ptr @hf_pbap_application_parameter_data_list_start_offset, align 4
  %119 = load ptr, ptr %5, align 8
  %120 = load i32, ptr %13, align 4
  %121 = call ptr @proto_tree_add_item(ptr noundef %117, i32 noundef %118, ptr noundef %119, i32 noundef %120, i32 noundef 2, i32 noundef 0)
  br label %214

122:                                              ; preds = %88
  %123 = load ptr, ptr %11, align 8
  %124 = load ptr, ptr %5, align 8
  %125 = load i32, ptr %13, align 4
  %126 = add i32 %125, 0
  %127 = load i32, ptr @hf_pbap_application_parameter_data_filter, align 4
  %128 = load i32, ptr @ett_obex_filter, align 4
  %129 = call ptr @proto_tree_add_bitmask(ptr noundef %123, ptr noundef %124, i32 noundef %126, i32 noundef %127, i32 noundef %128, ptr noundef @hfx_pbap_application_parameter_data_filter_1, i32 noundef 0)
  %130 = load ptr, ptr %11, align 8
  %131 = load ptr, ptr %5, align 8
  %132 = load i32, ptr %13, align 4
  %133 = add i32 %132, 4
  %134 = load i32, ptr @hf_pbap_application_parameter_data_filter, align 4
  %135 = load i32, ptr @ett_obex_filter, align 4
  %136 = call ptr @proto_tree_add_bitmask(ptr noundef %130, ptr noundef %131, i32 noundef %133, i32 noundef %134, i32 noundef %135, ptr noundef @hfx_pbap_application_parameter_data_filter_0, i32 noundef 0)
  br label %214

137:                                              ; preds = %88
  %138 = load ptr, ptr %11, align 8
  %139 = load i32, ptr @hf_pbap_application_parameter_data_format, align 4
  %140 = load ptr, ptr %5, align 8
  %141 = load i32, ptr %13, align 4
  %142 = call ptr @proto_tree_add_item(ptr noundef %138, i32 noundef %139, ptr noundef %140, i32 noundef %141, i32 noundef 1, i32 noundef 0)
  br label %214

143:                                              ; preds = %88
  %144 = load ptr, ptr %11, align 8
  %145 = load i32, ptr @hf_pbap_application_parameter_data_phonebook_size, align 4
  %146 = load ptr, ptr %5, align 8
  %147 = load i32, ptr %13, align 4
  %148 = call ptr @proto_tree_add_item(ptr noundef %144, i32 noundef %145, ptr noundef %146, i32 noundef %147, i32 noundef 2, i32 noundef 0)
  br label %214

149:                                              ; preds = %88
  %150 = load ptr, ptr %11, align 8
  %151 = load i32, ptr @hf_pbap_application_parameter_data_new_missed_calls, align 4
  %152 = load ptr, ptr %5, align 8
  %153 = load i32, ptr %13, align 4
  %154 = call ptr @proto_tree_add_item(ptr noundef %150, i32 noundef %151, ptr noundef %152, i32 noundef %153, i32 noundef 1, i32 noundef 0)
  br label %214

155:                                              ; preds = %88
  %156 = load ptr, ptr %11, align 8
  %157 = load i32, ptr @hf_pbap_application_parameter_data_primary_version_counter, align 4
  %158 = load ptr, ptr %5, align 8
  %159 = load i32, ptr %13, align 4
  %160 = call ptr @proto_tree_add_item(ptr noundef %156, i32 noundef %157, ptr noundef %158, i32 noundef %159, i32 noundef 16, i32 noundef 0)
  br label %214

161:                                              ; preds = %88
  %162 = load ptr, ptr %11, align 8
  %163 = load i32, ptr @hf_pbap_application_parameter_data_secondary_version_counter, align 4
  %164 = load ptr, ptr %5, align 8
  %165 = load i32, ptr %13, align 4
  %166 = call ptr @proto_tree_add_item(ptr noundef %162, i32 noundef %163, ptr noundef %164, i32 noundef %165, i32 noundef 16, i32 noundef 0)
  br label %214

167:                                              ; preds = %88
  %168 = load ptr, ptr %11, align 8
  %169 = load ptr, ptr %5, align 8
  %170 = load i32, ptr %13, align 4
  %171 = add i32 %170, 0
  %172 = load i32, ptr @hf_pbap_application_parameter_vcard_selector, align 4
  %173 = load i32, ptr @ett_obex_filter, align 4
  %174 = call ptr @proto_tree_add_bitmask(ptr noundef %168, ptr noundef %169, i32 noundef %171, i32 noundef %172, i32 noundef %173, ptr noundef @hfx_pbap_application_parameter_data_filter_1, i32 noundef 0)
  %175 = load ptr, ptr %11, align 8
  %176 = load ptr, ptr %5, align 8
  %177 = load i32, ptr %13, align 4
  %178 = add i32 %177, 4
  %179 = load i32, ptr @hf_pbap_application_parameter_vcard_selector, align 4
  %180 = load i32, ptr @ett_obex_filter, align 4
  %181 = call ptr @proto_tree_add_bitmask(ptr noundef %175, ptr noundef %176, i32 noundef %178, i32 noundef %179, i32 noundef %180, ptr noundef @hfx_pbap_application_parameter_data_filter_0, i32 noundef 0)
  br label %214

182:                                              ; preds = %88
  %183 = load ptr, ptr %11, align 8
  %184 = load i32, ptr @hf_pbap_application_parameter_data_database_identifier, align 4
  %185 = load ptr, ptr %5, align 8
  %186 = load i32, ptr %13, align 4
  %187 = call ptr @proto_tree_add_item(ptr noundef %183, i32 noundef %184, ptr noundef %185, i32 noundef %186, i32 noundef 16, i32 noundef 0)
  br label %214

188:                                              ; preds = %88
  %189 = load ptr, ptr %11, align 8
  %190 = load i32, ptr @hf_pbap_application_parameter_data_vcard_selector_operator, align 4
  %191 = load ptr, ptr %5, align 8
  %192 = load i32, ptr %13, align 4
  %193 = call ptr @proto_tree_add_item(ptr noundef %189, i32 noundef %190, ptr noundef %191, i32 noundef %192, i32 noundef 1, i32 noundef 0)
  br label %214

194:                                              ; preds = %88
  %195 = load ptr, ptr %11, align 8
  %196 = load i32, ptr @hf_pbap_application_parameter_data_reset_new_missed_calls, align 4
  %197 = load ptr, ptr %5, align 8
  %198 = load i32, ptr %13, align 4
  %199 = call ptr @proto_tree_add_item(ptr noundef %195, i32 noundef %196, ptr noundef %197, i32 noundef %198, i32 noundef 1, i32 noundef 0)
  br label %214

200:                                              ; preds = %88
  %201 = load ptr, ptr %11, align 8
  %202 = load ptr, ptr %5, align 8
  %203 = load i32, ptr %13, align 4
  %204 = load i32, ptr @hf_pbap_application_parameter_data_supported_features, align 4
  %205 = load i32, ptr @ett_obex_parameter, align 4
  %206 = call ptr @proto_tree_add_bitmask(ptr noundef %201, ptr noundef %202, i32 noundef %203, i32 noundef %204, i32 noundef %205, ptr noundef @hfx_pbap_application_parameter_data_supported_features, i32 noundef 0)
  br label %214

207:                                              ; preds = %88
  %208 = load ptr, ptr %11, align 8
  %209 = load i32, ptr @hf_application_parameter_data, align 4
  %210 = load ptr, ptr %5, align 8
  %211 = load i32, ptr %13, align 4
  %212 = load i32, ptr %15, align 4
  %213 = call ptr @proto_tree_add_item(ptr noundef %208, i32 noundef %209, ptr noundef %210, i32 noundef %211, i32 noundef %212, i32 noundef 0)
  br label %214

214:                                              ; preds = %207, %200, %194, %188, %182, %167, %161, %155, %149, %143, %137, %122, %116, %110, %104, %97, %91
  br label %215

215:                                              ; preds = %214, %73
  %216 = load i32, ptr %15, align 4
  %217 = add i32 2, %216
  %218 = load i32, ptr %14, align 4
  %219 = sub i32 %218, %217
  store i32 %219, ptr %14, align 4
  %220 = load i32, ptr %15, align 4
  %221 = load i32, ptr %13, align 4
  %222 = add i32 %221, %220
  store i32 %222, ptr %13, align 4
  br label %18, !llvm.loop !16

223:                                              ; preds = %18
  %224 = load i32, ptr %13, align 4
  call void @llvm.lifetime.end.p0(i64 4, ptr %15) #7
  call void @llvm.lifetime.end.p0(i64 4, ptr %14) #7
  call void @llvm.lifetime.end.p0(i64 4, ptr %13) #7
  call void @llvm.lifetime.end.p0(i64 1, ptr %12) #7
  call void @llvm.lifetime.end.p0(i64 8, ptr %11) #7
  call void @llvm.lifetime.end.p0(i64 8, ptr %10) #7
  call void @llvm.lifetime.end.p0(i64 8, ptr %9) #7
  ret i32 %224
}