; Function Attrs: null_pointer_is_valid sspstrong uwtable
define internal i32 @dissect_obex_application_parameter_bt_pbap(ptr noundef %0, ptr noundef %1, ptr noundef %2, ptr readnone captures(none) %3) #0 {
  %5 = tail call i32 @tvb_reported_length(ptr noundef %0)
  %6 = icmp sgt i32 %5, 0
  br i1 %6, label %.lr.ph, label %._crit_edge

.lr.ph:                                           ; preds = %4, %96
  %.0102 = phi i32 [ %98, %96 ], [ 0, %4 ]
  %.096101 = phi i32 [ %97, %96 ], [ %5, %4 ]
  %7 = tail call zeroext i8 @tvb_get_uint8(ptr noundef %0, i32 noundef %.0102)
  %8 = add i32 %.0102, 1
  %9 = tail call zeroext i8 @tvb_get_uint8(ptr noundef %0, i32 noundef %8)
  %10 = zext i8 %9 to i32
  %11 = load i32, ptr @hf_application_parameter, align 4
  %12 = add nuw nsw i32 %10, 2
  %13 = zext i8 %7 to i32
  %14 = tail call ptr @val_to_str_const(i32 noundef %13, ptr noundef nonnull @pbap_application_parameters_vals, ptr noundef nonnull @.str.702)
  %15 = tail call ptr (ptr, i32, ptr, i32, i32, ptr, ...) @proto_tree_add_none_format(ptr noundef %2, i32 noundef %11, ptr noundef %0, i32 noundef %.0102, i32 noundef %12, ptr noundef nonnull @.str.776, ptr noundef %14)
  %16 = load i32, ptr @ett_obex_application_parameters, align 4
  %17 = tail call ptr @proto_item_add_subtree(ptr noundef %15, i32 noundef %16)
  %18 = load i32, ptr @hf_pbap_application_parameter_id, align 4
  %19 = tail call ptr @proto_tree_add_item(ptr noundef %17, i32 noundef %18, ptr noundef %0, i32 noundef %.0102, i32 noundef 1, i32 noundef 0)
  %20 = load i32, ptr @hf_application_parameter_length, align 4
  %21 = tail call ptr @proto_tree_add_item(ptr noundef %17, i32 noundef %20, ptr noundef %0, i32 noundef %8, i32 noundef 1, i32 noundef 0)
  %22 = add i32 %.0102, 2
  %23 = icmp ult i8 %7, 16
  br i1 %23, label %24, label %33

24:                                               ; preds = %.lr.ph
  %cond = icmp eq i8 %7, 2
  br i1 %cond, label %37, label %25

25:                                               ; preds = %24
  %26 = zext nneg i8 %7 to i64
  %27 = getelementptr [16 x i32], ptr @dissect_obex_application_parameter_bt_pbap.required_length_map, i64 0, i64 %26
  %28 = load i32, ptr %27, align 4
  %.not100 = icmp eq i32 %28, %10
  br i1 %.not100, label %33, label %29

29:                                               ; preds = %25
  %30 = load i32, ptr @hf_application_parameter_data, align 4
  %31 = tail call ptr @proto_tree_add_item(ptr noundef %17, i32 noundef %30, ptr noundef %0, i32 noundef %22, i32 noundef %10, i32 noundef 0)
  %32 = tail call ptr (ptr, ptr, ptr, ptr, ...) @expert_add_info_format(ptr noundef %1, ptr noundef %21, ptr noundef nonnull @ei_application_parameter_length_bad, ptr noundef nonnull @.str.778, i32 noundef %28, i32 noundef %10)
  br label %96

33:                                               ; preds = %25, %.lr.ph
  switch i8 %7, label %93 [
    i8 1, label %34
    i8 2, label %37
    i8 3, label %40
    i8 4, label %43
    i8 5, label %46
    i8 6, label %49
    i8 7, label %57
    i8 8, label %60
    i8 9, label %63
    i8 10, label %66
    i8 11, label %69
    i8 12, label %72
    i8 13, label %80
    i8 14, label %83
    i8 15, label %86
    i8 16, label %89
  ]

34:                                               ; preds = %33
  %35 = load i32, ptr @hf_pbap_application_parameter_data_order, align 4
  %36 = tail call ptr @proto_tree_add_item(ptr noundef %17, i32 noundef %35, ptr noundef %0, i32 noundef %22, i32 noundef 1, i32 noundef 0)
  br label %96

37:                                               ; preds = %24, %33
  %38 = load i32, ptr @hf_pbap_application_parameter_data_search_value, align 4
  %39 = tail call ptr @proto_tree_add_item(ptr noundef %17, i32 noundef %38, ptr noundef %0, i32 noundef %22, i32 noundef %10, i32 noundef 0)
  br label %96

40:                                               ; preds = %33
  %41 = load i32, ptr @hf_pbap_application_parameter_data_search_attribute, align 4
  %42 = tail call ptr @proto_tree_add_item(ptr noundef %17, i32 noundef %41, ptr noundef %0, i32 noundef %22, i32 noundef 1, i32 noundef 0)
  br label %96

43:                                               ; preds = %33
  %44 = load i32, ptr @hf_pbap_application_parameter_data_max_list_count, align 4
  %45 = tail call ptr @proto_tree_add_item(ptr noundef %17, i32 noundef %44, ptr noundef %0, i32 noundef %22, i32 noundef 2, i32 noundef 0)
  br label %96

46:                                               ; preds = %33
  %47 = load i32, ptr @hf_pbap_application_parameter_data_list_start_offset, align 4
  %48 = tail call ptr @proto_tree_add_item(ptr noundef %17, i32 noundef %47, ptr noundef %0, i32 noundef %22, i32 noundef 2, i32 noundef 0)
  br label %96

49:                                               ; preds = %33
  %50 = load i32, ptr @hf_pbap_application_parameter_data_filter, align 4
  %51 = load i32, ptr @ett_obex_filter, align 4
  %52 = tail call ptr @proto_tree_add_bitmask(ptr noundef %17, ptr noundef %0, i32 noundef %22, i32 noundef %50, i32 noundef %51, ptr noundef nonnull @hfx_pbap_application_parameter_data_filter_1, i32 noundef 0)
  %53 = add i32 %.0102, 6
  %54 = load i32, ptr @hf_pbap_application_parameter_data_filter, align 4
  %55 = load i32, ptr @ett_obex_filter, align 4
  %56 = tail call ptr @proto_tree_add_bitmask(ptr noundef %17, ptr noundef %0, i32 noundef %53, i32 noundef %54, i32 noundef %55, ptr noundef nonnull @hfx_pbap_application_parameter_data_filter_0, i32 noundef 0)
  br label %96

57:                                               ; preds = %33
  %58 = load i32, ptr @hf_pbap_application_parameter_data_format, align 4
  %59 = tail call ptr @proto_tree_add_item(ptr noundef %17, i32 noundef %58, ptr noundef %0, i32 noundef %22, i32 noundef 1, i32 noundef 0)
  br label %96

60:                                               ; preds = %33
  %61 = load i32, ptr @hf_pbap_application_parameter_data_phonebook_size, align 4
  %62 = tail call ptr @proto_tree_add_item(ptr noundef %17, i32 noundef %61, ptr noundef %0, i32 noundef %22, i32 noundef 2, i32 noundef 0)
  br label %96

63:                                               ; preds = %33
  %64 = load i32, ptr @hf_pbap_application_parameter_data_new_missed_calls, align 4
  %65 = tail call ptr @proto_tree_add_item(ptr noundef %17, i32 noundef %64, ptr noundef %0, i32 noundef %22, i32 noundef 1, i32 noundef 0)
  br label %96

66:                                               ; preds = %33
  %67 = load i32, ptr @hf_pbap_application_parameter_data_primary_version_counter, align 4
  %68 = tail call ptr @proto_tree_add_item(ptr noundef %17, i32 noundef %67, ptr noundef %0, i32 noundef %22, i32 noundef 16, i32 noundef 0)
  br label %96

69:                                               ; preds = %33
  %70 = load i32, ptr @hf_pbap_application_parameter_data_secondary_version_counter, align 4
  %71 = tail call ptr @proto_tree_add_item(ptr noundef %17, i32 noundef %70, ptr noundef %0, i32 noundef %22, i32 noundef 16, i32 noundef 0)
  br label %96

72:                                               ; preds = %33
  %73 = load i32, ptr @hf_pbap_application_parameter_vcard_selector, align 4
  %74 = load i32, ptr @ett_obex_filter, align 4
  %75 = tail call ptr @proto_tree_add_bitmask(ptr noundef %17, ptr noundef %0, i32 noundef %22, i32 noundef %73, i32 noundef %74, ptr noundef nonnull @hfx_pbap_application_parameter_data_filter_1, i32 noundef 0)
  %76 = add i32 %.0102, 6
  %77 = load i32, ptr @hf_pbap_application_parameter_vcard_selector, align 4
  %78 = load i32, ptr @ett_obex_filter, align 4
  %79 = tail call ptr @proto_tree_add_bitmask(ptr noundef %17, ptr noundef %0, i32 noundef %76, i32 noundef %77, i32 noundef %78, ptr noundef nonnull @hfx_pbap_application_parameter_data_filter_0, i32 noundef 0)
  br label %96

80:                                               ; preds = %33
  %81 = load i32, ptr @hf_pbap_application_parameter_data_database_identifier, align 4
  %82 = tail call ptr @proto_tree_add_item(ptr noundef %17, i32 noundef %81, ptr noundef %0, i32 noundef %22, i32 noundef 16, i32 noundef 0)
  br label %96

83:                                               ; preds = %33
  %84 = load i32, ptr @hf_pbap_application_parameter_data_vcard_selector_operator, align 4
  %85 = tail call ptr @proto_tree_add_item(ptr noundef %17, i32 noundef %84, ptr noundef %0, i32 noundef %22, i32 noundef 1, i32 noundef 0)
  br label %96

86:                                               ; preds = %33
  %87 = load i32, ptr @hf_pbap_application_parameter_data_reset_new_missed_calls, align 4
  %88 = tail call ptr @proto_tree_add_item(ptr noundef %17, i32 noundef %87, ptr noundef %0, i32 noundef %22, i32 noundef 1, i32 noundef 0)
  br label %96

89:                                               ; preds = %33
  %90 = load i32, ptr @hf_pbap_application_parameter_data_supported_features, align 4
  %91 = load i32, ptr @ett_obex_parameter, align 4
  %92 = tail call ptr @proto_tree_add_bitmask(ptr noundef %17, ptr noundef %0, i32 noundef %22, i32 noundef %90, i32 noundef %91, ptr noundef nonnull @hfx_pbap_application_parameter_data_supported_features, i32 noundef 0)
  br label %96

93:                                               ; preds = %33
  %94 = load i32, ptr @hf_application_parameter_data, align 4
  %95 = tail call ptr @proto_tree_add_item(ptr noundef %17, i32 noundef %94, ptr noundef %0, i32 noundef %22, i32 noundef %10, i32 noundef 0)
  br label %96

96:                                               ; preds = %34, %37, %40, %43, %46, %49, %57, %60, %63, %66, %69, %72, %80, %83, %86, %89, %93, %29
  %97 = sub nsw i32 %.096101, %12
  %98 = add i32 %22, %10
  %99 = icmp sgt i32 %97, 0
  br i1 %99, label %.lr.ph, label %._crit_edge, !llvm.loop !22

._crit_edge:                                      ; preds = %96, %4
  %.0.lcssa = phi i32 [ 0, %4 ], [ %98, %96 ]
  ret i32 %.0.lcssa
}